; Function Attrs: mustprogress nounwind uwtable
define internal void @_ZN12_GLOBAL__N_13DFSD0Ev(ptr noundef nonnull align 8 dereferenceable(672) initializes((0, 8)) %0) unnamed_addr #3 align 2 {
  store ptr getelementptr inbounds nuw inrange(-16, 40) (i8, ptr @_ZTVN12_GLOBAL__N_13DFSE, i64 16), ptr %0, align 8
  %2 = getelementptr inbounds nuw i8, ptr %0, i64 16
  %3 = tail call noundef i64 @_ZNK4llvm15SmallVectorBaseIjE4sizeEv(ptr noundef nonnull align 8 dereferenceable(656) %2) #17
  %4 = load ptr, ptr %2, align 8
  %5 = getelementptr inbounds nuw i8, ptr %0, i64 32
  %6 = icmp eq ptr %4, %5
  br i1 %6, label %_ZN12_GLOBAL__N_13DFSD2Ev.exit, label %7

7:                                                ; preds = %1
  tail call void @free(ptr noundef %4) #17
  br label %_ZN12_GLOBAL__N_13DFSD2Ev.exit

_ZN12_GLOBAL__N_13DFSD2Ev.exit:                   ; preds = %1, %7
  tail call void @_ZdlPvm(ptr noundef nonnull %0, i64 noundef 672) #18
  ret void
}